target datalayout = "e-m:e-p270:32:32-p271:32:32-p272:64:64-i64:64-i128:128-f80:128-n8:16:32:64-S128"
target triple = "x86_64-pc-linux-gnu"

@.str.1 = private unnamed_addr constant [2 x i8] c"\0A\00", align 1
@.str.17 = private unnamed_addr constant [41 x i8] c"Supported Elliptic Curve Point Formats: \00", align 1
@.str.18 = private unnamed_addr constant [2 x i8] c":\00", align 1
@.str.19 = private unnamed_addr constant [13 x i8] c"uncompressed\00", align 1
@.str.20 = private unnamed_addr constant [26 x i8] c"ansiX962_compressed_prime\00", align 1
@.str.21 = private unnamed_addr constant [26 x i8] c"ansiX962_compressed_char2\00", align 1
@.str.22 = private unnamed_addr constant [12 x i8] c"unknown(%d)\00", align 1

; Function Attrs: nounwind uwtable
define i32 @ssl_print_point_formats(ptr noundef %0, ptr noundef %1) #0 {
  %3 = alloca i32, align 4
  %4 = alloca ptr, align 8
  %5 = alloca ptr, align 8
  %6 = alloca i32, align 4
  %7 = alloca i32, align 4
  %8 = alloca ptr, align 8
  %9 = alloca i32, align 4
  store ptr %0, ptr %4, align 8, !tbaa !14
  store ptr %1, ptr %5, align 8, !tbaa !27
  call void @llvm.lifetime.start.p0(i64 4, ptr %6) #10
  call void @llvm.lifetime.start.p0(i64 4, ptr %7) #10
  call void @llvm.lifetime.start.p0(i64 8, ptr %8) #10
  %10 = load ptr, ptr %5, align 8, !tbaa !27
  %11 = call i64 @SSL_ctrl(ptr noundef %10, i32 noundef 111, i64 noundef 0, ptr noundef %8)
  %12 = trunc i64 %11 to i32
  store i32 %12, ptr %7, align 4, !tbaa !3
  %13 = load i32, ptr %7, align 4, !tbaa !3
  %14 = icmp sle i32 %13, 0
  br i1 %14, label %15, label %16

15:                                               ; preds = %2
  store i32 1, ptr %3, align 4
  store i32 1, ptr %9, align 4
  br label %57

16:                                               ; preds = %2
  %17 = load ptr, ptr %4, align 8, !tbaa !14
  %18 = call i32 @BIO_puts(ptr noundef %17, ptr noundef @.str.17)
  store i32 0, ptr %6, align 4, !tbaa !3
  br label %19

19:                                               ; preds = %49, %16
  %20 = load i32, ptr %6, align 4, !tbaa !3
  %21 = load i32, ptr %7, align 4, !tbaa !3
  %22 = icmp slt i32 %20, %21
  br i1 %22, label %23, label %54

23:                                               ; preds = %19
  %24 = load i32, ptr %6, align 4, !tbaa !3
  %25 = icmp ne i32 %24, 0
  br i1 %25, label %26, label %29

26:                                               ; preds = %23
  %27 = load ptr, ptr %4, align 8, !tbaa !14
  %28 = call i32 @BIO_puts(ptr noundef %27, ptr noundef @.str.18)
  br label %29

29:                                               ; preds = %26, %23
  %30 = load ptr, ptr %8, align 8, !tbaa !21
  %31 = load i8, ptr %30, align 1, !tbaa !29
  %32 = sext i8 %31 to i32
  switch i32 %32, label %42 [
    i32 0, label %33
    i32 1, label %36
    i32 2, label %39
  ]

33:                                               ; preds = %29
  %34 = load ptr, ptr %4, align 8, !tbaa !14
  %35 = call i32 @BIO_puts(ptr noundef %34, ptr noundef @.str.19)
  br label %48

36:                                               ; preds = %29
  %37 = load ptr, ptr %4, align 8, !tbaa !14
  %38 = call i32 @BIO_puts(ptr noundef %37, ptr noundef @.str.20)
  br label %48

39:                                               ; preds = %29
  %40 = load ptr, ptr %4, align 8, !tbaa !14
  %41 = call i32 @BIO_puts(ptr noundef %40, ptr noundef @.str.21)
  br label %48

42:                                               ; preds = %29
  %43 = load ptr, ptr %4, align 8, !tbaa !14
  %44 = load ptr, ptr %8, align 8, !tbaa !21
  %45 = load i8, ptr %44, align 1, !tbaa !29
  %46 = sext i8 %45 to i32
  %47 = call i32 (ptr, ptr, ...) @BIO_printf(ptr noundef %43, ptr noundef @.str.22, i32 noundef %46)
  br label %48

48:                                               ; preds = %42, %39, %36, %33
  br label %49

49:                                               ; preds = %48
  %50 = load i32, ptr %6, align 4, !tbaa !3
  %51 = add nsw i32 %50, 1
  store i32 %51, ptr %6, align 4, !tbaa !3
  %52 = load ptr, ptr %8, align 8, !tbaa !21
  %53 = getelementptr inbounds nuw i8, ptr %52, i32 1
  store ptr %53, ptr %8, align 8, !tbaa !21
  br label %19, !llvm.loop !33

54:                                               ; preds = %19
  %55 = load ptr, ptr %4, align 8, !tbaa !14
  %56 = call i32 @BIO_puts(ptr noundef %55, ptr noundef @.str.1)
  store i32 1, ptr %3, align 4
  store i32 1, ptr %9, align 4
  br label %57

57:                                               ; preds = %54, %15
  call void @llvm.lifetime.end.p0(i64 8, ptr %8) #10
  call void @llvm.lifetime.end.p0(i64 4, ptr %7) #10
  call void @llvm.lifetime.end.p0(i64 4, ptr %6) #10
  %58 = load i32, ptr %3, align 4
  ret i32 %58
}