; Function Attrs: nounwind uwtable
define noundef i32 @ssl_print_point_formats(ptr noundef %0, ptr noundef %1) local_unnamed_addr #0 {
  %3 = alloca ptr, align 8
  call void @llvm.lifetime.start.p0(i64 8, ptr nonnull %3) #6
  %4 = call i64 @SSL_ctrl(ptr noundef %1, i32 noundef 111, i64 noundef 0, ptr noundef nonnull %3) #6
  %5 = trunc i64 %4 to i32
  %6 = icmp slt i32 %5, 1
  br i1 %6, label %30, label %7

7:                                                ; preds = %2
  %8 = call i32 @BIO_puts(ptr noundef %0, ptr noundef nonnull @.str.17) #6
  br label %9

9:                                                ; preds = %7, %24
  %.01314 = phi i32 [ 0, %7 ], [ %25, %24 ]
  %.not = icmp eq i32 %.01314, 0
  br i1 %.not, label %12, label %10

10:                                               ; preds = %9
  %11 = call i32 @BIO_puts(ptr noundef %0, ptr noundef nonnull @.str.18) #6
  br label %12

12:                                               ; preds = %10, %9
  %13 = load ptr, ptr %3, align 8, !tbaa !13
  %14 = load i8, ptr %13, align 1, !tbaa !15
  switch i8 %14, label %21 [
    i8 0, label %15
    i8 1, label %17
    i8 2, label %19
  ]

15:                                               ; preds = %12
  %16 = call i32 @BIO_puts(ptr noundef %0, ptr noundef nonnull @.str.19) #6
  br label %24

17:                                               ; preds = %12
  %18 = call i32 @BIO_puts(ptr noundef %0, ptr noundef nonnull @.str.20) #6
  br label %24

19:                                               ; preds = %12
  %20 = call i32 @BIO_puts(ptr noundef %0, ptr noundef nonnull @.str.21) #6
  br label %24

21:                                               ; preds = %12
  %22 = sext i8 %14 to i32
  %23 = call i32 (ptr, ptr, ...) @BIO_printf(ptr noundef %0, ptr noundef nonnull @.str.22, i32 noundef %22) #6
  br label %24

24:                                               ; preds = %15, %17, %19, %21
  %25 = add nuw nsw i32 %.01314, 1
  %26 = load ptr, ptr %3, align 8, !tbaa !13
  %27 = getelementptr inbounds nuw i8, ptr %26, i64 1
  store ptr %27, ptr %3, align 8, !tbaa !13
  %exitcond.not = icmp eq i32 %25, %5
  br i1 %exitcond.not, label %28, label %9, !llvm.loop !24

28:                                               ; preds = %24
  %29 = call i32 @BIO_puts(ptr noundef %0, ptr noundef nonnull @.str.1) #6
  br label %30

30:                                               ; preds = %2, %28
  call void @llvm.lifetime.end.p0(i64 8, ptr nonnull %3) #6
  ret i32 1
}